; Function Attrs: nounwind uwtable
define dso_local range(i32 0, 3) i32 @determine_protocol_version_server() local_unnamed_addr #0 {
  %1 = alloca %struct.string_list, align 8
  %2 = tail call ptr @getenv(ptr noundef nonnull @.str.4) #7
  %.not = icmp eq ptr %2, null
  br i1 %.not, label %25, label %3

3:                                                ; preds = %0
  call void @llvm.lifetime.start.p0(i64 40, ptr nonnull %1) #7
  call void @llvm.memset.p0.i64(ptr noundef nonnull align 8 dereferenceable(40) %1, i8 0, i64 40, i1 false)
  %4 = getelementptr inbounds nuw i8, ptr %1, i64 24
  store i8 1, ptr %4, align 8
  %5 = call i32 @string_list_split(ptr noundef nonnull %1, ptr noundef nonnull %2, i32 noundef 58, i32 noundef -1) #7
  %6 = load ptr, ptr %1, align 8, !tbaa !12
  %.not1320 = icmp eq ptr %6, null
  br i1 %.not1320, label %.critedge, label %.lr.ph

.lr.ph:                                           ; preds = %3
  %7 = getelementptr inbounds nuw i8, ptr %1, i64 8
  %8 = load i64, ptr %7, align 8, !tbaa !17
  %9 = getelementptr inbounds nuw %struct.string_list_item, ptr %6, i64 %8
  %.not29 = icmp eq i64 %8, 0
  br i1 %.not29, label %.critedge, label %.lr.ph28

.lr.ph28:                                         ; preds = %.lr.ph, %skip_prefix.exit
  %.0102127 = phi ptr [ %23, %skip_prefix.exit ], [ %6, %.lr.ph ]
  %.12226 = phi i32 [ %.2, %skip_prefix.exit ], [ 0, %.lr.ph ]
  %10 = load ptr, ptr %.0102127, align 8, !tbaa !18
  %scevgep = getelementptr i8, ptr %10, i64 8
  br label %11

11:                                               ; preds = %12, %.lr.ph28
  %.07.i = phi ptr [ %10, %.lr.ph28 ], [ %14, %12 ]
  %.06.i.idx = phi i64 [ 0, %.lr.ph28 ], [ %.06.i.add, %12 ]
  %exitcond = icmp eq i64 %.06.i.idx, 8
  br i1 %exitcond, label %17, label %12

12:                                               ; preds = %11
  %.06.i.ptr = getelementptr inbounds nuw i8, ptr @.str.5, i64 %.06.i.idx
  %13 = load i8, ptr %.06.i.ptr, align 1, !tbaa !11
  %14 = getelementptr inbounds nuw i8, ptr %.07.i, i64 1
  %15 = load i8, ptr %.07.i, align 1, !tbaa !11
  %.06.i.add = add nuw nsw i64 %.06.i.idx, 1
  %16 = icmp eq i8 %15, %13
  br i1 %16, label %11, label %skip_prefix.exit, !llvm.loop !20

17:                                               ; preds = %11
  %18 = load i8, ptr %scevgep, align 1
  %switch.tableidx = add i8 %18, -48
  %19 = icmp ult i8 %switch.tableidx, 3
  br i1 %19, label %switch.lookup, label %parse_protocol_version.exit

switch.lookup:                                    ; preds = %17
  %switch.idx.cast = zext nneg i8 %switch.tableidx to i32
  %20 = getelementptr i8, ptr %10, i64 9
  %21 = load i8, ptr %20, align 1
  %22 = icmp eq i8 %21, 0
  %spec.select22.i = select i1 %22, i32 %switch.idx.cast, i32 -1
  br label %parse_protocol_version.exit

parse_protocol_version.exit:                      ; preds = %17, %switch.lookup
  %.0.i = phi i32 [ -1, %17 ], [ %spec.select22.i, %switch.lookup ]
  %spec.select = call i32 @llvm.smax.i32(i32 %.0.i, i32 %.12226)
  br label %skip_prefix.exit

skip_prefix.exit:                                 ; preds = %12, %parse_protocol_version.exit
  %.2 = phi i32 [ %spec.select, %parse_protocol_version.exit ], [ %.12226, %12 ]
  %23 = getelementptr inbounds nuw i8, ptr %.0102127, i64 16
  %24 = icmp ult ptr %23, %9
  br i1 %24, label %.lr.ph28, label %.critedge

.critedge:                                        ; preds = %skip_prefix.exit, %.lr.ph, %3
  %.1.lcssa = phi i32 [ 0, %3 ], [ 0, %.lr.ph ], [ %.2, %skip_prefix.exit ]
  call void @string_list_clear(ptr noundef nonnull %1, i32 noundef 0) #7
  call void @llvm.lifetime.end.p0(i64 40, ptr nonnull %1) #7
  br label %25

25:                                               ; preds = %.critedge, %0
  %.0 = phi i32 [ %.1.lcssa, %.critedge ], [ 0, %0 ]
  %26 = zext nneg i32 %.0 to i64
  call void @trace2_data_intmax_fl(ptr noundef nonnull @.str.6, i32 noundef 80, ptr noundef nonnull @.str.7, ptr noundef null, ptr noundef nonnull @.str.8, i64 noundef %26) #7
  ret i32 %.0
}